target datalayout = "e-m:e-p270:32:32-p271:32:32-p272:64:64-i64:64-i128:128-f80:128-n8:16:32:64-S128"
target triple = "x86_64-pc-linux-gnu"

%"class.doctest::String" = type { %union.anon }
%union.anon = type { %"struct.doctest::String::view", [8 x i8] }
%"struct.doctest::String::view" = type { ptr, i32, i32 }
%"struct.doctest::detail::ResultBuilder" = type { %"struct.doctest::AssertData" }
%"struct.doctest::AssertData" = type { ptr, i32, ptr, i32, ptr, i8, i8, %"class.doctest::String", %"class.doctest::String", i8, ptr, %"class.doctest::AssertData::StringContains" }
%"class.doctest::AssertData::StringContains" = type <{ %"class.doctest::Contains", i8, [7 x i8] }>
%"class.doctest::Contains" = type { %"class.doctest::String" }
%"class.std::__cxx11::basic_string" = type { %"struct.std::__cxx11::basic_string<char>::_Alloc_hider", i64, %union.anon.0 }
%"struct.std::__cxx11::basic_string<char>::_Alloc_hider" = type { ptr }
%union.anon.0 = type { i64, [8 x i8] }
%"struct.doctest::ContextOptions" = type <{ ptr, %"class.doctest::String", ptr, %"class.doctest::String", %"class.doctest::String", i32, i32, i32, i32, i32, i8, i8, i8, i8, i8, i8, i8, i8, i8, i8, i8, i8, i8, i8, i8, i8, i8, i8, i8, i8, i8, i8, i8, i8, i8, i8, i8, i8 }>
%"struct.doctest::detail::RelationalComparator.187" = type { i8 }

@.str = private unnamed_addr constant [1 x i8] zeroinitializer, align 1
@.str.56 = private unnamed_addr constant [113 x i8] c"generated/home/dtcxzyw/WorkSpace/Projects/compilers/llvm-opt-benchmark/bench/luau/luau/tests/IrLowering.test.cpp\00", align 1
@.str.152 = private unnamed_addr constant [2 x i8] c"\0A\00", align 1
@.str.155 = private unnamed_addr constant [3 x i8] c", \00", align 1
@.str.184 = private unnamed_addr constant [56 x i8] c"\0Alocal function vec3minus(a: vector)\0A    return -a\0Aend\0A\00", align 1

; Function Attrs: mustprogress nounwind uwtable
define linkonce_odr dso_local noundef zeroext i1 @_ZSteqIcSt11char_traitsIcESaIcEEbRKNSt7__cxx1112basic_stringIT_T0_T1_EEPKS5_(ptr noundef nonnull align 8 dereferenceable(32) %0, ptr noundef %1) #1 comdat {
  %3 = alloca ptr, align 8
  %4 = alloca ptr, align 8
  store ptr %0, ptr %3, align 8
  store ptr %1, ptr %4, align 8
  %5 = load ptr, ptr %3, align 8
  %6 = load ptr, ptr %4, align 8
  %7 = call noundef i32 @_ZNKSt7__cxx1112basic_stringIcSt11char_traitsIcESaIcEE7compareEPKc(ptr noundef nonnull align 8 dereferenceable(32) %5, ptr noundef %6) #13
  %8 = icmp eq i32 %7, 0
  ret i1 %8
}

; Function Attrs: mustprogress nounwind uwtable
define linkonce_odr dso_local noundef zeroext i1 @_ZN7doctest6detail2eqINSt7__cxx1112basic_stringIcSt11char_traitsIcESaIcEEEA248_cEEbRKT_RKT0_(ptr noundef nonnull align 8 dereferenceable(32) %0, ptr noundef nonnull align 1 dereferenceable(248) %1) #1 comdat {
  %3 = alloca ptr, align 8
  %4 = alloca ptr, align 8
  store ptr %0, ptr %3, align 8
  store ptr %1, ptr %4, align 8
  %5 = load ptr, ptr %3, align 8
  %6 = load ptr, ptr %4, align 8
  %7 = getelementptr inbounds [248 x i8], ptr %6, i64 0, i64 0
  %8 = call noundef zeroext i1 @_ZSteqIcSt11char_traitsIcESaIcEEbRKNSt7__cxx1112basic_stringIT_T0_T1_EEPKS5_(ptr noundef nonnull align 8 dereferenceable(32) %5, ptr noundef %7)
  ret i1 %8
}

; Function Attrs: mustprogress uwtable
define linkonce_odr dso_local noundef zeroext i1 @_ZNK7doctest6detail20RelationalComparatorILi0ENSt7__cxx1112basic_stringIcSt11char_traitsIcESaIcEEEA248_cEclERKS7_RA248_Kc(ptr noundef nonnull align 1 dereferenceable(1) %0, ptr noundef nonnull align 8 dereferenceable(32) %1, ptr noundef nonnull align 1 dereferenceable(248) %2) #4 comdat align 2 {
  %4 = alloca ptr, align 8
  %5 = alloca ptr, align 8
  %6 = alloca ptr, align 8
  store ptr %0, ptr %4, align 8
  store ptr %1, ptr %5, align 8
  store ptr %2, ptr %6, align 8
  %7 = load ptr, ptr %5, align 8
  %8 = load ptr, ptr %6, align 8
  %9 = call noundef zeroext i1 @_ZN7doctest6detail2eqINSt7__cxx1112basic_stringIcSt11char_traitsIcESaIcEEEA248_cEEbRKT_RKT0_(ptr noundef nonnull align 8 dereferenceable(32) %7, ptr noundef nonnull align 1 dereferenceable(248) %8)
  ret i1 %9
}

; Function Attrs: mustprogress uwtable
define linkonce_odr dso_local noundef zeroext i1 @_ZN7doctest6detail13ResultBuilder13binary_assertILi0ENSt7__cxx1112basic_stringIcSt11char_traitsIcESaIcEEEA248_cEEbRKT0_RKT1_(ptr noundef nonnull align 8 dereferenceable(144) %0, ptr noundef nonnull align 8 dereferenceable(32) %1, ptr noundef nonnull align 1 dereferenceable(248) %2) #4 comdat align 2 {
  %4 = alloca ptr, align 8
  %5 = alloca ptr, align 8
  %6 = alloca ptr, align 8
  %7 = alloca %"struct.doctest::detail::RelationalComparator.187", align 1
  %8 = alloca %"class.doctest::String", align 8
  store ptr %0, ptr %4, align 8
  store ptr %1, ptr %5, align 8
  store ptr %2, ptr %6, align 8
  %9 = load ptr, ptr %4, align 8
  %10 = load ptr, ptr %5, align 8
  %11 = load ptr, ptr %6, align 8
  %12 = call noundef zeroext i1 @_ZNK7doctest6detail20RelationalComparatorILi0ENSt7__cxx1112basic_stringIcSt11char_traitsIcESaIcEEEA248_cEclERKS7_RA248_Kc(ptr noundef nonnull align 1 dereferenceable(1) %7, ptr noundef nonnull align 8 dereferenceable(32) %10, ptr noundef nonnull align 1 dereferenceable(248) %11)
  %13 = xor i1 %12, true
  %14 = getelementptr inbounds %"struct.doctest::AssertData", ptr %9, i32 0, i32 5
  %15 = zext i1 %13 to i8
  store i8 %15, ptr %14, align 8
  %16 = getelementptr inbounds %"struct.doctest::AssertData", ptr %9, i32 0, i32 5
  %17 = load i8, ptr %16, align 8
  %18 = trunc i8 %17 to i1
  br i1 %18, label %24, label %19

19:                                               ; preds = %3
  %20 = call noundef ptr @_ZN7doctest17getContextOptionsEv()
  %21 = getelementptr inbounds %"struct.doctest::ContextOptions", ptr %20, i32 0, i32 10
  %22 = load i8, ptr %21, align 4
  %23 = trunc i8 %22 to i1
  br i1 %23, label %24, label %29

24:                                               ; preds = %19, %3
  %25 = load ptr, ptr %5, align 8
  %26 = load ptr, ptr %6, align 8
  call void @_ZN7doctest6detail19stringifyBinaryExprINSt7__cxx1112basic_stringIcSt11char_traitsIcESaIcEEEA248_cEENS_6StringERKT_PKcRKT0_(ptr dead_on_unwind writable sret(%"class.doctest::String") align 8 %8, ptr noundef nonnull align 8 dereferenceable(32) %25, ptr noundef @.str.155, ptr noundef nonnull align 1 dereferenceable(248) %26)
  %27 = getelementptr inbounds %"struct.doctest::AssertData", ptr %9, i32 0, i32 8
  %28 = call noundef nonnull align 8 dereferenceable(24) ptr @_ZN7doctest6StringaSEOS0_(ptr noundef nonnull align 8 dereferenceable(24) %27, ptr noundef nonnull align 8 dereferenceable(24) %8) #13
  call void @_ZN7doctest6StringD1Ev(ptr noundef nonnull align 8 dereferenceable(24) %8) #13
  br label %29

29:                                               ; preds = %24, %19
  %30 = getelementptr inbounds %"struct.doctest::AssertData", ptr %9, i32 0, i32 5
  %31 = load i8, ptr %30, align 8
  %32 = trunc i8 %31 to i1
  %33 = xor i1 %32, true
  ret i1 %33
}

; Function Attrs: mustprogress uwtable
define linkonce_odr dso_local void @_ZStplIcSt11char_traitsIcESaIcEENSt7__cxx1112basic_stringIT_T0_T1_EEPKS5_OS8_(ptr dead_on_unwind noalias writable sret(%"class.std::__cxx11::basic_string") align 8 %0, ptr noundef %1, ptr noundef nonnull align 8 dereferenceable(32) %2) #4 comdat {
  %4 = alloca ptr, align 8
  %5 = alloca ptr, align 8
  %6 = alloca ptr, align 8
  store ptr %0, ptr %4, align 8
  store ptr %1, ptr %5, align 8
  store ptr %2, ptr %6, align 8
  %7 = load ptr, ptr %6, align 8
  %8 = load ptr, ptr %5, align 8
  %9 = call noundef nonnull align 8 dereferenceable(32) ptr @_ZNSt7__cxx1112basic_stringIcSt11char_traitsIcESaIcEE6insertEmPKc(ptr noundef nonnull align 8 dereferenceable(32) %7, i64 noundef 0, ptr noundef %8)
  call void @_ZNSt7__cxx1112basic_stringIcSt11char_traitsIcESaIcEEC1EOS4_(ptr noundef nonnull align 8 dereferenceable(32) %0, ptr noundef nonnull align 8 dereferenceable(32) %9) #13
  ret void
}

; Function Attrs: mustprogress uwtable
define internal void @_ZL20DOCTEST_ANON_FUNC_10v() #4 personality ptr @__gxx_personality_v0 {
  %1 = alloca %"struct.doctest::detail::ResultBuilder", align 8
  %2 = alloca %"class.doctest::String", align 8
  %3 = alloca ptr, align 8
  %4 = alloca i32, align 4
  %5 = alloca %"class.std::__cxx11::basic_string", align 8
  %6 = alloca %"class.std::__cxx11::basic_string", align 8
  br label %7

7:                                                ; preds = %0
  call void @_ZN7doctest6StringC1EPKc(ptr noundef nonnull align 8 dereferenceable(24) %2, ptr noundef @.str)
  invoke void @_ZN7doctest6detail13ResultBuilderC1ENS_10assertType4EnumEPKciS5_S5_RKNS_6StringE(ptr noundef nonnull align 8 dereferenceable(144) %1, i32 noundef 1034, ptr noundef @.str.56, i32 noundef 232, ptr noundef @.str.183, ptr noundef @.str, ptr noundef nonnull align 8 dereferenceable(24) %2)
          to label %8 unwind label %13

8:                                                ; preds = %7
  call void @_ZN7doctest6StringD1Ev(ptr noundef nonnull align 8 dereferenceable(24) %2) #13
  invoke void @_ZL18getCodegenAssemblyB5cxx11PKcbi(ptr dead_on_unwind writable sret(%"class.std::__cxx11::basic_string") align 8 %6, ptr noundef @.str.184, i1 noundef zeroext false, i32 noundef 1)
          to label %9 unwind label %17

9:                                                ; preds = %8
  invoke void @_ZStplIcSt11char_traitsIcESaIcEENSt7__cxx1112basic_stringIT_T0_T1_EEPKS5_OS8_(ptr dead_on_unwind writable sret(%"class.std::__cxx11::basic_string") align 8 %5, ptr noundef @.str.152, ptr noundef nonnull align 8 dereferenceable(32) %6)
          to label %10 unwind label %21

10:                                               ; preds = %9
  %11 = invoke noundef zeroext i1 @_ZN7doctest6detail13ResultBuilder13binary_assertILi0ENSt7__cxx1112basic_stringIcSt11char_traitsIcESaIcEEEA248_cEEbRKT0_RKT1_(ptr noundef nonnull align 8 dereferenceable(144) %1, ptr noundef nonnull align 8 dereferenceable(32) %5, ptr noundef nonnull align 1 dereferenceable(248) @.str.185)
          to label %12 unwind label %25

12:                                               ; preds = %10
  call void @_ZNSt7__cxx1112basic_stringIcSt11char_traitsIcESaIcEED1Ev(ptr noundef nonnull align 8 dereferenceable(32) %5) #13
  call void @_ZNSt7__cxx1112basic_stringIcSt11char_traitsIcESaIcEED1Ev(ptr noundef nonnull align 8 dereferenceable(32) %6) #13
  br label %35

13:                                               ; preds = %7
  %14 = landingpad { ptr, i32 }
          cleanup
  %15 = extractvalue { ptr, i32 } %14, 0
  store ptr %15, ptr %3, align 8
  %16 = extractvalue { ptr, i32 } %14, 1
  store i32 %16, ptr %4, align 4
  call void @_ZN7doctest6StringD1Ev(ptr noundef nonnull align 8 dereferenceable(24) %2) #13
  br label %52

17:                                               ; preds = %8
  %18 = landingpad { ptr, i32 }
          catch ptr null
  %19 = extractvalue { ptr, i32 } %18, 0
  store ptr %19, ptr %3, align 8
  %20 = extractvalue { ptr, i32 } %18, 1
  store i32 %20, ptr %4, align 4
  br label %30

21:                                               ; preds = %9
  %22 = landingpad { ptr, i32 }
          catch ptr null
  %23 = extractvalue { ptr, i32 } %22, 0
  store ptr %23, ptr %3, align 8
  %24 = extractvalue { ptr, i32 } %22, 1
  store i32 %24, ptr %4, align 4
  br label %29

25:                                               ; preds = %10
  %26 = landingpad { ptr, i32 }
          catch ptr null
  %27 = extractvalue { ptr, i32 } %26, 0
  store ptr %27, ptr %3, align 8
  %28 = extractvalue { ptr, i32 } %26, 1
  store i32 %28, ptr %4, align 4
  call void @_ZNSt7__cxx1112basic_stringIcSt11char_traitsIcESaIcEED1Ev(ptr noundef nonnull align 8 dereferenceable(32) %5) #13
  br label %29

29:                                               ; preds = %25, %21
  call void @_ZNSt7__cxx1112basic_stringIcSt11char_traitsIcESaIcEED1Ev(ptr noundef nonnull align 8 dereferenceable(32) %6) #13
  br label %30

30:                                               ; preds = %29, %17
  %31 = load ptr, ptr %3, align 8
  %32 = call ptr @__cxa_begin_catch(ptr %31) #13
  invoke void @_ZN7doctest6detail13ResultBuilder18translateExceptionEv(ptr noundef nonnull align 8 dereferenceable(144) %1)
          to label %33 unwind label %39

33:                                               ; preds = %30
  invoke void @__cxa_end_catch()
          to label %34 unwind label %43

34:                                               ; preds = %33
  br label %35

35:                                               ; preds = %34, %12
  %36 = invoke noundef zeroext i1 @_ZN7doctest6detail13ResultBuilder3logEv(ptr noundef nonnull align 8 dereferenceable(144) %1)
          to label %37 unwind label %43

37:                                               ; preds = %35
  br i1 %36, label %38, label %48

38:                                               ; preds = %37
  call void asm sideeffect "int $$3\0A", "~{dirflag},~{fpsr},~{flags}"() #13, !srcloc !8
  br label %48

39:                                               ; preds = %30
  %40 = landingpad { ptr, i32 }
          cleanup
  %41 = extractvalue { ptr, i32 } %40, 0
  store ptr %41, ptr %3, align 8
  %42 = extractvalue { ptr, i32 } %40, 1
  store i32 %42, ptr %4, align 4
  invoke void @__cxa_end_catch()
          to label %47 unwind label %57

43:                                               ; preds = %48, %35, %33
  %44 = landingpad { ptr, i32 }
          cleanup
  %45 = extractvalue { ptr, i32 } %44, 0
  store ptr %45, ptr %3, align 8
  %46 = extractvalue { ptr, i32 } %44, 1
  store i32 %46, ptr %4, align 4
  br label %51

47:                                               ; preds = %39
  br label %51

48:                                               ; preds = %38, %37
  invoke void @_ZNK7doctest6detail13ResultBuilder5reactEv(ptr noundef nonnull align 8 dereferenceable(144) %1)
          to label %49 unwind label %43

49:                                               ; preds = %48
  call void @_ZN7doctest6detail13ResultBuilderD2Ev(ptr noundef nonnull align 8 dereferenceable(144) %1) #13
  br label %50

50:                                               ; preds = %49
  ret void

51:                                               ; preds = %47, %43
  call void @_ZN7doctest6detail13ResultBuilderD2Ev(ptr noundef nonnull align 8 dereferenceable(144) %1) #13
  br label %52

52:                                               ; preds = %51, %13
  %53 = load ptr, ptr %3, align 8
  %54 = load i32, ptr %4, align 4
  %55 = insertvalue { ptr, i32 } poison, ptr %53, 0
  %56 = insertvalue { ptr, i32 } %55, i32 %54, 1
  resume { ptr, i32 } %56

57:                                               ; preds = %39
  %58 = landingpad { ptr, i32 }
          catch ptr null
  %59 = extractvalue { ptr, i32 } %58, 0
  call void @__clang_call_terminate(ptr %59) #14
  unreachable
}